target datalayout = "e-m:e-p270:32:32-p271:32:32-p272:64:64-i64:64-i128:128-f80:128-n8:16:32:64-S128"
target triple = "x86_64-pc-linux-gnu"

; Function Attrs: mustprogress uwtable
define linkonce_odr dso_local noundef ptr @_ZN4absl19str_format_internal24ConsumeUnboundConversionEPKcS2_PNS0_17UnboundConversionEPi(ptr noundef %0, ptr noundef %1, ptr noundef %2, ptr noundef %3) #1 comdat {
  %5 = alloca ptr, align 8
  %6 = alloca ptr, align 8
  %7 = alloca ptr, align 8
  %8 = alloca ptr, align 8
  %9 = alloca ptr, align 8
  store ptr %0, ptr %6, align 8, !tbaa !4
  store ptr %1, ptr %7, align 8, !tbaa !4
  store ptr %2, ptr %8, align 8, !tbaa !9
  store ptr %3, ptr %9, align 8, !tbaa !11
  %10 = load ptr, ptr %9, align 8, !tbaa !11
  %11 = load i32, ptr %10, align 4, !tbaa !13
  %12 = icmp slt i32 %11, 0
  br i1 %12, label %13, label %19

13:                                               ; preds = %4
  %14 = load ptr, ptr %6, align 8, !tbaa !4
  %15 = load ptr, ptr %7, align 8, !tbaa !4
  %16 = load ptr, ptr %8, align 8, !tbaa !9
  %17 = load ptr, ptr %9, align 8, !tbaa !11
  %18 = call noundef ptr @_ZN4absl19str_format_internal17ConsumeConversionILb1EEEPKcS3_S3_PNS0_17UnboundConversionEPi(ptr noundef %14, ptr noundef %15, ptr noundef %16, ptr noundef %17)
  store ptr %18, ptr %5, align 8
  br label %25

19:                                               ; preds = %4
  %20 = load ptr, ptr %6, align 8, !tbaa !4
  %21 = load ptr, ptr %7, align 8, !tbaa !4
  %22 = load ptr, ptr %8, align 8, !tbaa !9
  %23 = load ptr, ptr %9, align 8, !tbaa !11
  %24 = call noundef ptr @_ZN4absl19str_format_internal17ConsumeConversionILb0EEEPKcS3_S3_PNS0_17UnboundConversionEPi(ptr noundef %20, ptr noundef %21, ptr noundef %22, ptr noundef %23)
  store ptr %24, ptr %5, align 8
  br label %25

25:                                               ; preds = %19, %13
  %26 = load ptr, ptr %5, align 8
  ret ptr %26
}

; Function Attrs: mustprogress noinline uwtable
define dso_local noundef ptr @_ZN4absl19str_format_internal32ConsumeUnboundConversionNoInlineEPKcS2_PNS0_17UnboundConversionEPi(ptr noundef %0, ptr noundef %1, ptr noundef %2, ptr noundef %3) #0 {
  %5 = alloca ptr, align 8
  %6 = alloca ptr, align 8
  %7 = alloca ptr, align 8
  %8 = alloca ptr, align 8
  store ptr %0, ptr %5, align 8, !tbaa !4
  store ptr %1, ptr %6, align 8, !tbaa !4
  store ptr %2, ptr %7, align 8, !tbaa !9
  store ptr %3, ptr %8, align 8, !tbaa !11
  %9 = load ptr, ptr %5, align 8, !tbaa !4
  %10 = load ptr, ptr %6, align 8, !tbaa !4
  %11 = load ptr, ptr %7, align 8, !tbaa !9
  %12 = load ptr, ptr %8, align 8, !tbaa !11
  %13 = call noundef ptr @_ZN4absl19str_format_internal24ConsumeUnboundConversionEPKcS2_PNS0_17UnboundConversionEPi(ptr noundef %9, ptr noundef %10, ptr noundef %11, ptr noundef %12)
  ret ptr %13
}