; Function Attrs: mustprogress noinline uwtable
define dso_local noundef ptr @_ZN4absl19str_format_internal32ConsumeUnboundConversionNoInlineEPKcS2_PNS0_17UnboundConversionEPi(ptr noundef %0, ptr noundef %1, ptr noundef %2, ptr noundef %3) local_unnamed_addr #0 {
  %5 = load i32, ptr %3, align 4, !tbaa !4
  %6 = icmp slt i32 %5, 0
  br i1 %6, label %7, label %9

7:                                                ; preds = %4
  %8 = tail call noundef ptr @_ZN4absl19str_format_internal17ConsumeConversionILb1EEEPKcS3_S3_PNS0_17UnboundConversionEPi(ptr noundef %0, ptr noundef %1, ptr noundef %2, ptr noundef nonnull %3)
  br label %_ZN4absl19str_format_internal24ConsumeUnboundConversionEPKcS2_PNS0_17UnboundConversionEPi.exit

9:                                                ; preds = %4
  %10 = tail call noundef ptr @_ZN4absl19str_format_internal17ConsumeConversionILb0EEEPKcS3_S3_PNS0_17UnboundConversionEPi(ptr noundef %0, ptr noundef %1, ptr noundef %2, ptr noundef nonnull %3)
  br label %_ZN4absl19str_format_internal24ConsumeUnboundConversionEPKcS2_PNS0_17UnboundConversionEPi.exit

_ZN4absl19str_format_internal24ConsumeUnboundConversionEPKcS2_PNS0_17UnboundConversionEPi.exit: ; preds = %7, %9
  %.0.i = phi ptr [ %8, %7 ], [ %10, %9 ]
  ret ptr %.0.i
}